target datalayout = "e-m:e-p270:32:32-p271:32:32-p272:64:64-i64:64-i128:128-f80:128-n8:16:32:64-S128"
target triple = "x86_64-pc-linux-gnu"

%struct._dcerpc_info = type { ptr, i32, i64, i8, i8, i8, i32, i32, i32, i32, i32, i32, i32, i32, ptr, ptr, ptr, ptr, %struct.anon }
%struct.anon = type { i8, ptr, ptr, ptr, i8 }

@hf_sysact_si_serverinfo = internal global i32 0, align 4
@hf_sysact_si_ci_res = internal global i32 0, align 4
@hf_sysact_si_ci_string = internal global i32 0, align 4
@ett_dcom_securityinfo = internal global i32 0, align 4
@.str.168 = private unnamed_addr constant [14 x i8] c"Name(wstring)\00", align 1
@.str.169 = private unnamed_addr constant [12 x i8] c"AuthInfoPtr\00", align 1

; Function Attrs: null_pointer_is_valid sspstrong uwtable
define internal i32 @dissect_dcom_COSERVERINFO(ptr noundef %0, i32 noundef %1, ptr noundef %2, ptr noundef %3, ptr noundef %4, ptr noundef %5, i32 noundef %6) #0 {
  %8 = alloca i32, align 4
  %9 = alloca ptr, align 8
  %10 = alloca i32, align 4
  %11 = alloca ptr, align 8
  %12 = alloca ptr, align 8
  %13 = alloca ptr, align 8
  %14 = alloca ptr, align 8
  %15 = alloca i32, align 4
  %16 = alloca ptr, align 8
  %17 = alloca ptr, align 8
  %18 = alloca i32, align 4
  %19 = alloca i32, align 4
  store ptr %0, ptr %9, align 8
  store i32 %1, ptr %10, align 4
  store ptr %2, ptr %11, align 8
  store ptr %3, ptr %12, align 8
  store ptr %4, ptr %13, align 8
  store ptr %5, ptr %14, align 8
  store i32 %6, ptr %15, align 4
  call void @llvm.lifetime.start.p0(i64 8, ptr %16) #5
  call void @llvm.lifetime.start.p0(i64 8, ptr %17) #5
  call void @llvm.lifetime.start.p0(i64 4, ptr %18) #5
  %20 = load ptr, ptr %13, align 8
  %21 = getelementptr inbounds nuw %struct._dcerpc_info, ptr %20, i32 0, i32 4
  %22 = load i8, ptr %21, align 1, !range !9, !noundef !10
  %23 = trunc i8 %22 to i1
  br i1 %23, label %24, label %26

24:                                               ; preds = %7
  %25 = load i32, ptr %10, align 4
  store i32 %25, ptr %8, align 4
  store i32 1, ptr %19, align 4
  br label %78

26:                                               ; preds = %7
  %27 = load ptr, ptr %12, align 8
  %28 = load i32, ptr %15, align 4
  %29 = load ptr, ptr %9, align 8
  %30 = load i32, ptr %10, align 4
  %31 = call ptr @proto_tree_add_item(ptr noundef %27, i32 noundef %28, ptr noundef %29, i32 noundef %30, i32 noundef 0, i32 noundef 0)
  store ptr %31, ptr %16, align 8
  %32 = load ptr, ptr %16, align 8
  %33 = load i32, ptr @ett_dcom_securityinfo, align 4
  %34 = call ptr @proto_item_add_subtree(ptr noundef %32, i32 noundef %33)
  store ptr %34, ptr %17, align 8
  %35 = load i32, ptr %10, align 4
  store i32 %35, ptr %18, align 4
  %36 = load ptr, ptr %9, align 8
  %37 = load i32, ptr %10, align 4
  %38 = load ptr, ptr %11, align 8
  %39 = load ptr, ptr %17, align 8
  %40 = load ptr, ptr %13, align 8
  %41 = load ptr, ptr %14, align 8
  %42 = load i32, ptr @hf_sysact_si_ci_res, align 4
  %43 = call i32 @dissect_ndr_uint32(ptr noundef %36, i32 noundef %37, ptr noundef %38, ptr noundef %39, ptr noundef %40, ptr noundef %41, i32 noundef %42, ptr noundef null)
  store i32 %43, ptr %10, align 4
  %44 = load ptr, ptr %9, align 8
  %45 = load i32, ptr %10, align 4
  %46 = load ptr, ptr %11, align 8
  %47 = load ptr, ptr %17, align 8
  %48 = load ptr, ptr %13, align 8
  %49 = load ptr, ptr %14, align 8
  %50 = load i32, ptr @hf_sysact_si_ci_string, align 4
  %51 = call i32 @dissect_ndr_embedded_pointer(ptr noundef %44, i32 noundef %45, ptr noundef %46, ptr noundef %47, ptr noundef %48, ptr noundef %49, ptr noundef @dissect_ndr_wchar_cvstring, i32 noundef 2, ptr noundef @.str.168, i32 noundef %50)
  store i32 %51, ptr %10, align 4
  %52 = load ptr, ptr %9, align 8
  %53 = load i32, ptr %10, align 4
  %54 = load ptr, ptr %11, align 8
  %55 = load ptr, ptr %17, align 8
  %56 = load ptr, ptr %13, align 8
  %57 = load ptr, ptr %14, align 8
  %58 = call i32 @dissect_ndr_embedded_pointer(ptr noundef %52, i32 noundef %53, ptr noundef %54, ptr noundef %55, ptr noundef %56, ptr noundef %57, ptr noundef null, i32 noundef 2, ptr noundef @.str.169, i32 noundef -1)
  store i32 %58, ptr %10, align 4
  %59 = load ptr, ptr %9, align 8
  %60 = load i32, ptr %10, align 4
  %61 = load ptr, ptr %11, align 8
  %62 = load ptr, ptr %17, align 8
  %63 = load ptr, ptr %13, align 8
  %64 = load ptr, ptr %14, align 8
  %65 = load i32, ptr @hf_sysact_si_ci_res, align 4
  %66 = call i32 @dissect_ndr_uint32(ptr noundef %59, i32 noundef %60, ptr noundef %61, ptr noundef %62, ptr noundef %63, ptr noundef %64, i32 noundef %65, ptr noundef null)
  store i32 %66, ptr %10, align 4
  %67 = load ptr, ptr %11, align 8
  %68 = load ptr, ptr %9, align 8
  %69 = load i32, ptr %10, align 4
  %70 = load ptr, ptr %13, align 8
  %71 = load ptr, ptr %14, align 8
  %72 = call i32 @dissect_deferred_pointers(ptr noundef %67, ptr noundef %68, i32 noundef %69, ptr noundef %70, ptr noundef %71)
  store i32 %72, ptr %10, align 4
  %73 = load ptr, ptr %16, align 8
  %74 = load i32, ptr %10, align 4
  %75 = load i32, ptr %18, align 4
  %76 = sub i32 %74, %75
  call void @proto_item_set_len(ptr noundef %73, i32 noundef %76)
  %77 = load i32, ptr %10, align 4
  store i32 %77, ptr %8, align 4
  store i32 1, ptr %19, align 4
  br label %78

78:                                               ; preds = %26, %24
  call void @llvm.lifetime.end.p0(i64 4, ptr %18) #5
  call void @llvm.lifetime.end.p0(i64 8, ptr %17) #5
  call void @llvm.lifetime.end.p0(i64 8, ptr %16) #5
  %79 = load i32, ptr %8, align 4
  ret i32 %79
}

; Function Attrs: null_pointer_is_valid sspstrong uwtable
define internal i32 @dissect_dcom_SI_ServerInfo(ptr noundef %0, i32 noundef %1, ptr noundef %2, ptr noundef %3, ptr noundef %4, ptr noundef %5) #0 {
  %7 = alloca ptr, align 8
  %8 = alloca i32, align 4
  %9 = alloca ptr, align 8
  %10 = alloca ptr, align 8
  %11 = alloca ptr, align 8
  %12 = alloca ptr, align 8
  store ptr %0, ptr %7, align 8
  store i32 %1, ptr %8, align 4
  store ptr %2, ptr %9, align 8
  store ptr %3, ptr %10, align 8
  store ptr %4, ptr %11, align 8
  store ptr %5, ptr %12, align 8
  %13 = load ptr, ptr %7, align 8
  %14 = load i32, ptr %8, align 4
  %15 = load ptr, ptr %9, align 8
  %16 = load ptr, ptr %10, align 8
  %17 = load ptr, ptr %11, align 8
  %18 = load ptr, ptr %12, align 8
  %19 = load i32, ptr @hf_sysact_si_serverinfo, align 4
  %20 = call i32 @dissect_dcom_COSERVERINFO(ptr noundef %13, i32 noundef %14, ptr noundef %15, ptr noundef %16, ptr noundef %17, ptr noundef %18, i32 noundef %19)
  store i32 %20, ptr %8, align 4
  %21 = load i32, ptr %8, align 4
  ret i32 %21
}