; Function Attrs: null_pointer_is_valid sspstrong uwtable
define internal i32 @dissect_dcom_SI_ServerInfo(ptr noundef %0, i32 noundef %1, ptr noundef %2, ptr noundef %3, ptr noundef %4, ptr noundef %5) #0 {
  %7 = getelementptr inbounds nuw i8, ptr %4, i64 25
  %8 = load i8, ptr %7, align 1, !range !9, !noundef !10
  %9 = trunc nuw i8 %8 to i1
  br i1 %9, label %dissect_dcom_COSERVERINFO.exit, label %10

10:                                               ; preds = %6
  %11 = load i32, ptr @hf_sysact_si_serverinfo, align 4
  %12 = tail call ptr @proto_tree_add_item(ptr noundef %3, i32 noundef %11, ptr noundef %0, i32 noundef %1, i32 noundef 0, i32 noundef 0)
  %13 = load i32, ptr @ett_dcom_securityinfo, align 4
  %14 = tail call ptr @proto_item_add_subtree(ptr noundef %12, i32 noundef %13)
  %15 = load i32, ptr @hf_sysact_si_ci_res, align 4
  %16 = tail call i32 @dissect_ndr_uint32(ptr noundef %0, i32 noundef %1, ptr noundef %2, ptr noundef %14, ptr noundef %4, ptr noundef %5, i32 noundef %15, ptr noundef null)
  %17 = load i32, ptr @hf_sysact_si_ci_string, align 4
  %18 = tail call i32 @dissect_ndr_embedded_pointer(ptr noundef %0, i32 noundef %16, ptr noundef %2, ptr noundef %14, ptr noundef %4, ptr noundef %5, ptr noundef nonnull @dissect_ndr_wchar_cvstring, i32 noundef 2, ptr noundef nonnull @.str.168, i32 noundef %17)
  %19 = tail call i32 @dissect_ndr_embedded_pointer(ptr noundef %0, i32 noundef %18, ptr noundef %2, ptr noundef %14, ptr noundef %4, ptr noundef %5, ptr noundef null, i32 noundef 2, ptr noundef nonnull @.str.169, i32 noundef -1)
  %20 = load i32, ptr @hf_sysact_si_ci_res, align 4
  %21 = tail call i32 @dissect_ndr_uint32(ptr noundef %0, i32 noundef %19, ptr noundef %2, ptr noundef %14, ptr noundef %4, ptr noundef %5, i32 noundef %20, ptr noundef null)
  %22 = tail call i32 @dissect_deferred_pointers(ptr noundef %2, ptr noundef %0, i32 noundef %21, ptr noundef %4, ptr noundef %5)
  %23 = sub i32 %22, %1
  tail call void @proto_item_set_len(ptr noundef %12, i32 noundef %23)
  br label %dissect_dcom_COSERVERINFO.exit

dissect_dcom_COSERVERINFO.exit:                   ; preds = %6, %10
  %.0.i = phi i32 [ %22, %10 ], [ %1, %6 ]
  ret i32 %.0.i
}